; Function Attrs: mustprogress nofree norecurse nosync nounwind willreturn memory(argmem: read) uwtable
define noundef zeroext i1 @_ZNK32pxrInternal_v0_24__pxrReserved__17CameraUtilFramingneERKS0_(ptr nocapture noundef nonnull readonly align 4 dereferenceable(36) %0, ptr nocapture noundef nonnull readonly align 4 dereferenceable(36) %1) local_unnamed_addr #3 align 2 {
  %3 = load float, ptr %0, align 4
  %4 = load float, ptr %1, align 4
  %5 = fcmp oeq float %3, %4
  %6 = getelementptr inbounds i8, ptr %0, i64 4
  %7 = load float, ptr %6, align 4
  %8 = getelementptr inbounds i8, ptr %1, i64 4
  %9 = load float, ptr %8, align 4
  %10 = fcmp oeq float %7, %9
  %11 = select i1 %5, i1 %10, i1 false
  br i1 %11, label %_ZNK32pxrInternal_v0_24__pxrReserved__9GfRange2feqERKS0_.exit.i, label %_ZNK32pxrInternal_v0_24__pxrReserved__17CameraUtilFramingeqERKS0_.exit

_ZNK32pxrInternal_v0_24__pxrReserved__9GfRange2feqERKS0_.exit.i: ; preds = %2
  %12 = getelementptr inbounds nuw i8, ptr %0, i64 8
  %13 = getelementptr inbounds nuw i8, ptr %1, i64 8
  %14 = load float, ptr %12, align 4
  %15 = load float, ptr %13, align 4
  %16 = fcmp oeq float %14, %15
  %17 = getelementptr inbounds i8, ptr %0, i64 12
  %18 = load float, ptr %17, align 4
  %19 = getelementptr inbounds i8, ptr %1, i64 12
  %20 = load float, ptr %19, align 4
  %21 = fcmp oeq float %18, %20
  %22 = select i1 %16, i1 %21, i1 false
  br i1 %22, label %23, label %_ZNK32pxrInternal_v0_24__pxrReserved__17CameraUtilFramingeqERKS0_.exit

23:                                               ; preds = %_ZNK32pxrInternal_v0_24__pxrReserved__9GfRange2feqERKS0_.exit.i
  %24 = getelementptr inbounds nuw i8, ptr %0, i64 16
  %25 = getelementptr inbounds nuw i8, ptr %1, i64 16
  %26 = load i32, ptr %24, align 4
  %27 = load i32, ptr %25, align 4
  %28 = icmp eq i32 %26, %27
  %29 = getelementptr inbounds i8, ptr %0, i64 20
  %30 = load i32, ptr %29, align 4
  %31 = getelementptr inbounds i8, ptr %1, i64 20
  %32 = load i32, ptr %31, align 4
  %33 = icmp eq i32 %30, %32
  %34 = select i1 %28, i1 %33, i1 false
  br i1 %34, label %_ZN32pxrInternal_v0_24__pxrReserved__eqERKNS_8GfRect2iES2_.exit.i, label %_ZNK32pxrInternal_v0_24__pxrReserved__17CameraUtilFramingeqERKS0_.exit

_ZN32pxrInternal_v0_24__pxrReserved__eqERKNS_8GfRect2iES2_.exit.i: ; preds = %23
  %35 = getelementptr inbounds i8, ptr %0, i64 24
  %36 = getelementptr inbounds i8, ptr %1, i64 24
  %37 = load i32, ptr %35, align 4
  %38 = load i32, ptr %36, align 4
  %39 = icmp eq i32 %37, %38
  %40 = getelementptr inbounds i8, ptr %0, i64 28
  %41 = load i32, ptr %40, align 4
  %42 = getelementptr inbounds i8, ptr %1, i64 28
  %43 = load i32, ptr %42, align 4
  %44 = icmp eq i32 %41, %43
  %45 = select i1 %39, i1 %44, i1 false
  br i1 %45, label %46, label %_ZNK32pxrInternal_v0_24__pxrReserved__17CameraUtilFramingeqERKS0_.exit

46:                                               ; preds = %_ZN32pxrInternal_v0_24__pxrReserved__eqERKNS_8GfRect2iES2_.exit.i
  %47 = getelementptr inbounds nuw i8, ptr %0, i64 32
  %48 = load float, ptr %47, align 4
  %49 = getelementptr inbounds nuw i8, ptr %1, i64 32
  %50 = load float, ptr %49, align 4
  %51 = fcmp une float %48, %50
  br label %_ZNK32pxrInternal_v0_24__pxrReserved__17CameraUtilFramingeqERKS0_.exit

_ZNK32pxrInternal_v0_24__pxrReserved__17CameraUtilFramingeqERKS0_.exit: ; preds = %2, %_ZNK32pxrInternal_v0_24__pxrReserved__9GfRange2feqERKS0_.exit.i, %23, %_ZN32pxrInternal_v0_24__pxrReserved__eqERKNS_8GfRect2iES2_.exit.i, %46
  %52 = phi i1 [ true, %_ZN32pxrInternal_v0_24__pxrReserved__eqERKNS_8GfRect2iES2_.exit.i ], [ true, %_ZNK32pxrInternal_v0_24__pxrReserved__9GfRange2feqERKS0_.exit.i ], [ %51, %46 ], [ true, %2 ], [ true, %23 ]
  ret i1 %52
}